(lp1
(lp2
I0
aI0
aI0
aa(lp3
I15
aI7
aI0
aa(lp4
I4
aI3
aI0
aa(lp5
I2
aI0
aI0
aa(lp6
I0
aI0
aI0
aa(lp7
I2
aI0
aI0
aa(lp8
I7
aI0
aI0
aa(lp9
I12
aI4
aI0
aa(lp10
I0
aI0
aI0
aa(lp11
I5
aI2
aI0
aa(lp12
I9
aI2
aI0
aa(lp13
I2
aI1
aI0
aa(lp14
I9
aI1
aI0
aa(lp15
I7
aI1
aI0
aa(lp16
I4
aI0
aI0
aa(lp17
I7
aI0
aI0
aa(lp18
I10
aI0
aI0
aa(lp19
I1
aI0
aI0
aa(lp20
I0
aI0
aI0
aa(lp21
I5
aI0
aI0
aa(lp22
I3
aI0
aI0
aa(lp23
I2
aI0
aI0
aa(lp24
I2
aI0
aI0
aa(lp25
I6
aI1
aI0
aa(lp26
I0
aI0
aI0
aa(lp27
I6
aI0
aI0
aa(lp28
I1
aI0
aI0
aa(lp29
I2
aI0
aI0
aa(lp30
I8
aI1
aI0
aa(lp31
I4
aI2
aI0
aa(lp32
I0
aI0
aI0
aa(lp33
I0
aI0
aI0
aa(lp34
I1
aI0
aI0
aa(lp35
I10
aI2
aI0
aa(lp36
I5
aI2
aI0
aa(lp37
I0
aI0
aI0
aa(lp38
I2
aI0
aI0
aa(lp39
I0
aI0
aI0
aa(lp40
I0
aI0
aI0
aa(lp41
I10
aI1
aI0
aa(lp42
I9
aI0
aI0
aa(lp43
I6
aI0
aI0
aa(lp44
I7
aI0
aI0
aa(lp45
I0
aI0
aI0
aa(lp46
I1
aI0
aI0
aa(lp47
I3
aI1
aI0
aa(lp48
I0
aI0
aI0
aa(lp49
I0
aI0
aI0
aa(lp50
I8
aI0
aI0
aa(lp51
I0
aI0
aI0
aa(lp52
I0
aI0
aI0
aa(lp53
I0
aI0
aI0
aa(lp54
I11
aI0
aI0
aa(lp55
I6
aI1
aI0
aa(lp56
I0
aI0
aI0
aa(lp57
I5
aI0
aI0
aa(lp58
I3
aI0
aI0
aa(lp59
I0
aI0
aI0
aa(lp60
I11
aI7
aI0
aa(lp61
I4
aI2
aI0
aa(lp62
I11
aI0
aI0
aa(lp63
I6
aI0
aI0
aa(lp64
I14
aI8
aI0
aa(lp65
I7
aI1
aI0
aa(lp66
I6
aI0
aI0
aa(lp67
I0
aI0
aI0
aa(lp68
I5
aI1
aI0
aa(lp69
I1
aI0
aI0
aa(lp70
I2
aI0
aI0
aa(lp71
I5
aI2
aI0
aa(lp72
I12
aI8
aI0
aa(lp73
I8
aI2
aI0
aa(lp74
I0
aI0
aI0
aa(lp75
I13
aI3
aI0
aa(lp76
I4
aI1
aI0
aa(lp77
I7
aI1
aI0
aa(lp78
I0
aI0
aI0
aa(lp79
I0
aI0
aI0
aa(lp80
I0
aI0
aI0
aa(lp81
I9
aI0
aI0
aa(lp82
I6
aI1
aI0
aa(lp83
I0
aI0
aI0
aa(lp84
I0
aI0
aI0
aa(lp85
I0
aI0
aI0
aa(lp86
I12
aI0
aI0
aa(lp87
I5
aI2
aI0
aa(lp88
I1
aI0
aI0
aa(lp89
I3
aI0
aI0
aa(lp90
I0
aI0
aI0
aa(lp91
I0
aI0
aI0
aa(lp92
I1
aI0
aI0
aa(lp93
I0
aI0
aI0
aa(lp94
I9
aI1
aI0
aa(lp95
I2
aI1
aI0
aa(lp96
I1
aI0
aI0
aa(lp97
I6
aI3
aI0
aa(lp98
I9
aI4
aI0
aa(lp99
I2
aI0
aI0
aa(lp100
I1
aI0
aI0
aa(lp101
I4
aI0
aI0
aa(lp102
I7
aI0
aI0
aa(lp103
I2
aI0
aI0
aa(lp104
I0
aI0
aI0
aa(lp105
I10
aI0
aI0
aa(lp106
I6
aI2
aI0
aa(lp107
I5
aI0
aI0
aa(lp108
I0
aI0
aI0
aa(lp109
I0
aI0
aI0
aa(lp110
I4
aI1
aI0
aa(lp111
I0
aI0
aI0
aa(lp112
I18
aI1
aI0
aa(lp113
I2
aI0
aI0
aa(lp114
I0
aI0
aI0
aa(lp115
I12
aI2
aI0
aa(lp116
I2
aI0
aI0
aa(lp117
I10
aI1
aI0
aa(lp118
I0
aI0
aI0
aa(lp119
I0
aI0
aI0
aa(lp120
I5
aI1
aI0
aa(lp121
I0
aI0
aI0
aa(lp122
I0
aI0
aI0
aa(lp123
I0
aI0
aI0
aa(lp124
I6
aI1
aI0
aa(lp125
I0
aI0
aI0
aa(lp126
I0
aI0
aI0
aa(lp127
I0
aI0
aI0
aa(lp128
I0
aI0
aI0
aa(lp129
I13
aI0
aI0
aa(lp130
I1
aI0
aI0
aa(lp131
I4
aI0
aI0
aa(lp132
I3
aI0
aI0
aa(lp133
I3
aI0
aI0
aa(lp134
I0
aI0
aI0
aa(lp135
I0
aI0
aI0
aa(lp136
I8
aI0
aI0
aa(lp137
I18
aI0
aI0
aa(lp138
I0
aI0
aI0
aa(lp139
I0
aI0
aI0
aa(lp140
I5
aI0
aI0
aa(lp141
I2
aI0
aI0
aa(lp142
I0
aI0
aI0
aa(lp143
I2
aI0
aI0
aa(lp144
I1
aI0
aI0
aa(lp145
I2
aI1
aI0
aa(lp146
I12
aI1
aI0
aa(lp147
I7
aI0
aI0
aa(lp148
I0
aI0
aI0
aa(lp149
I0
aI0
aI0
aa(lp150
I0
aI0
aI0
aa(lp151
I6
aI2
aI0
aa(lp152
I0
aI0
aI0
aa(lp153
I4
aI1
aI0
aa(lp154
I14
aI5
aI0
aa(lp155
I4
aI0
aI0
aa(lp156
I1
aI0
aI0
aa(lp157
I0
aI0
aI0
aa(lp158
I2
aI0
aI0
aa(lp159
I17
aI9
aI0
aa(lp160
I6
aI1
aI0
aa(lp161
I9
aI2
aI0
aa(lp162
I3
aI0
aI0
aa(lp163
I3
aI0
aI0
aa(lp164
I0
aI0
aI0
aa(lp165
I0
aI0
aI0
aa(lp166
I1
aI0
aI0
aa(lp167
I0
aI0
aI0
aa(lp168
I0
aI0
aI0
aa(lp169
I10
aI1
aI0
aa(lp170
I3
aI0
aI0
aa(lp171
I25
aI19
aI0
aa(lp172
I0
aI0
aI0
aa(lp173
I3
aI0
aI0
aa(lp174
I3
aI2
aI0
aa(lp175
I9
aI2
aI0
aa(lp176
I12
aI2
aI0
aa(lp177
I0
aI0
aI0
aa(lp178
I6
aI1
aI0
aa(lp179
I9
aI5
aI0
aa(lp180
I0
aI0
aI0
aa(lp181
I0
aI0
aI0
aa(lp182
I0
aI0
aI0
aa(lp183
I1
aI0
aI0
aa(lp184
I1
aI0
aI0
aa(lp185
I1
aI0
aI0
aa(lp186
I1
aI0
aI0
aa(lp187
I0
aI0
aI0
aa(lp188
I9
aI2
aI0
aa(lp189
I0
aI0
aI0
aa(lp190
I20
aI0
aI0
aa(lp191
I1
aI0
aI0
aa(lp192
I0
aI0
aI0
aa(lp193
I0
aI0
aI0
aa(lp194
I7
aI0
aI0
aa(lp195
I10
aI0
aI0
aa(lp196
I3
aI1
aI0
aa(lp197
I9
aI1
aI0
aa(lp198
I0
aI0
aI0
aa(lp199
I22
aI3
aI0
aa(lp200
I0
aI0
aI0
aa(lp201
I0
aI0
aI0
aa(lp202
I7
aI0
aI0
aa(lp203
I2
aI0
aI0
aa(lp204
I0
aI0
aI0
aa(lp205
I9
aI0
aI0
aa(lp206
I0
aI0
aI0
aa(lp207
I0
aI0
aI0
aa(lp208
I2
aI0
aI0
aa(lp209
I6
aI1
aI0
aa(lp210
I0
aI0
aI0
aa(lp211
I0
aI0
aI0
aa(lp212
I0
aI0
aI0
aa(lp213
I0
aI0
aI0
aa(lp214
I0
aI0
aI0
aa(lp215
I0
aI0
aI0
aa(lp216
I0
aI0
aI0
aa(lp217
I6
aI2
aI0
aa(lp218
I4
aI0
aI0
aa(lp219
I16
aI4
aI0
aa(lp220
I6
aI0
aI0
aa(lp221
I1
aI0
aI0
aa(lp222
I0
aI0
aI0
aa(lp223
I3
aI0
aI0
aa(lp224
I0
aI0
aI0
aa(lp225
I1
aI0
aI0
aa(lp226
I0
aI0
aI0
aa(lp227
I12
aI0
aI0
aa(lp228
I3
aI0
aI0
aa(lp229
I4
aI1
aI0
aa(lp230
I0
aI0
aI0
aa(lp231
I12
aI5
aI0
aa(lp232
I7
aI1
aI0
aa(lp233
I3
aI0
aI0
aa(lp234
I0
aI0
aI0
aa(lp235
I5
aI0
aI0
aa(lp236
I8
aI1
aI0
aa(lp237
I17
aI7
aI0
aa(lp238
I0
aI0
aI0
aa(lp239
I0
aI0
aI0
aa(lp240
I4
aI0
aI0
aa(lp241
I0
aI0
aI0
aa(lp242
I5
aI0
aI0
aa(lp243
I6
aI1
aI0
aa(lp244
I31
aI5
aI0
aa(lp245
I4
aI0
aI0
aa(lp246
I0
aI0
aI0
aa(lp247
I0
aI0
aI0
aa(lp248
I16
aI1
aI0
aa(lp249
I8
aI1
aI0
aa(lp250
I5
aI1
aI0
aa(lp251
I11
aI0
aI0
aa(lp252
I0
aI0
aI0
aa(lp253
I3
aI0
aI0
aa(lp254
I0
aI0
aI0
aa(lp255
I0
aI0
aI0
aa(lp256
I8
aI0
aI0
aa(lp257
I6
aI1
aI0
aa(lp258
I0
aI0
aI0
aa(lp259
I0
aI0
aI0
aa(lp260
I0
aI0
aI0
aa(lp261
I0
aI0
aI0
aa(lp262
I6
aI0
aI0
aa(lp263
I5
aI1
aI0
aa(lp264
I14
aI0
aI0
aa(lp265
I14
aI6
aI0
aa(lp266
I5
aI1
aI0
aa(lp267
I14
aI2
aI0
aa(lp268
I5
aI1
aI0
aa(lp269
I0
aI0
aI0
aa(lp270
I5
aI0
aI0
aa(lp271
I8
aI3
aI0
aa(lp272
I0
aI0
aI0
aa(lp273
I0
aI0
aI0
aa(lp274
I1
aI0
aI0
aa(lp275
I0
aI0
aI0
aa(lp276
I11
aI2
aI0
aa(lp277
I0
aI0
aI0
aa(lp278
I0
aI0
aI0
aa(lp279
I12
aI4
aI0
aa(lp280
I0
aI0
aI0
aa(lp281
I0
aI0
aI0
aa(lp282
I4
aI0
aI0
aa(lp283
I5
aI1
aI0
aa(lp284
I0
aI0
aI0
aa(lp285
I0
aI0
aI0
aa(lp286
I2
aI0
aI0
aa(lp287
I7
aI1
aI0
aa(lp288
I6
aI2
aI0
aa(lp289
I7
aI1
aI0
aa(lp290
I1
aI0
aI0
aa(lp291
I8
aI1
aI0
aa(lp292
I0
aI0
aI0
aa(lp293
I0
aI0
aI0
aa(lp294
I2
aI0
aI0
aa(lp295
I1
aI0
aI0
aa(lp296
I0
aI0
aI0
aa(lp297
I6
aI1
aI0
aa(lp298
I0
aI0
aI0
aa(lp299
I11
aI2
aI0
aa(lp300
I5
aI1
aI0
aa(lp301
I4
aI0
aI0
aa(lp302
I0
aI0
aI0
aa(lp303
I4
aI0
aI0
aa(lp304
I5
aI0
aI0
aa(lp305
I2
aI0
aI0
aa(lp306
I16
aI3
aI0
aa(lp307
I7
aI3
aI0
aa(lp308
I14
aI4
aI0
aa(lp309
I0
aI0
aI0
aa(lp310
I0
aI0
aI0
aa(lp311
I0
aI0
aI0
aa(lp312
I0
aI0
aI0
aa(lp313
I2
aI1
aI0
aa(lp314
I0
aI0
aI0
aa(lp315
I4
aI0
aI0
aa(lp316
I0
aI0
aI0
aa(lp317
I0
aI0
aI0
aa(lp318
I0
aI0
aI0
aa(lp319
I0
aI0
aI0
aa(lp320
I18
aI6
aI0
aa(lp321
I18
aI2
aI0
aa(lp322
I0
aI0
aI0
aa(lp323
I0
aI0
aI0
aa(lp324
I10
aI2
aI0
aa(lp325
I0
aI0
aI0
aa(lp326
I0
aI0
aI0
aa(lp327
I6
aI1
aI0
aa(lp328
I0
aI0
aI0
aa(lp329
I0
aI0
aI0
aa(lp330
I4
aI0
aI0
aa(lp331
I7
aI1
aI0
aa(lp332
I0
aI0
aI0
aa(lp333
I0
aI0
aI0
aa(lp334
I0
aI0
aI0
aa(lp335
I0
aI0
aI0
aa(lp336
I0
aI0
aI0
aa(lp337
I0
aI0
aI0
aa(lp338
I7
aI1
aI0
aa(lp339
I4
aI0
aI0
aa(lp340
I7
aI3
aI0
aa(lp341
I7
aI2
aI0
aa(lp342
I6
aI2
aI0
aa(lp343
I4
aI0
aI0
aa(lp344
I0
aI0
aI0
aa(lp345
I13
aI6
aI0
aa(lp346
I1
aI0
aI0
aa(lp347
I0
aI0
aI0
aa(lp348
I8
aI1
aI0
aa(lp349
I7
aI0
aI0
aa(lp350
I11
aI1
aI0
aa(lp351
I7
aI5
aI0
aa(lp352
I0
aI0
aI0
aa(lp353
I0
aI0
aI0
aa(lp354
I0
aI0
aI0
aa(lp355
I5
aI0
aI0
aa(lp356
I0
aI0
aI0
aa(lp357
I4
aI1
aI0
aa(lp358
I3
aI0
aI0
aa(lp359
I2
aI0
aI0
aa(lp360
I8
aI2
aI0
aa(lp361
I8
aI0
aI0
aa(lp362
I2
aI0
aI0
aa(lp363
I1
aI0
aI0
aa(lp364
I0
aI0
aI0
aa(lp365
I0
aI0
aI0
aa(lp366
I10
aI4
aI0
aa(lp367
I9
aI3
aI0
aa(lp368
I0
aI0
aI0
aa(lp369
I1
aI0
aI0
aa(lp370
I0
aI0
aI0
aa(lp371
I2
aI1
aI0
aa(lp372
I0
aI0
aI0
aa(lp373
I12
aI3
aI0
aa(lp374
I3
aI0
aI0
aa(lp375
I0
aI0
aI0
aa(lp376
I6
aI2
aI0
aa(lp377
I4
aI0
aI0
aa(lp378
I13
aI2
aI0
aa(lp379
I0
aI0
aI0
aa(lp380
I0
aI0
aI0
aa(lp381
I0
aI0
aI0
aa(lp382
I0
aI0
aI0
aa(lp383
I5
aI0
aI0
aa(lp384
I0
aI0
aI0
aa(lp385
I0
aI0
aI0
aa(lp386
I7
aI0
aI0
aa(lp387
I7
aI2
aI0
aa(lp388
I6
aI2
aI0
aa(lp389
I5
aI1
aI0
aa(lp390
I11
aI0
aI0
aa(lp391
I2
aI1
aI0
aa(lp392
I6
aI2
aI0
aa(lp393
I0
aI0
aI0
aa(lp394
I0
aI0
aI0
aa(lp395
I16
aI6
aI0
aa(lp396
I10
aI0
aI0
aa(lp397
I0
aI0
aI0
aa(lp398
I0
aI0
aI0
aa(lp399
I15
aI0
aI0
aa(lp400
I13
aI0
aI0
aa(lp401
I13
aI1
aI0
aa(lp402
I11
aI6
aI0
aa(lp403
I9
aI1
aI0
aa(lp404
I0
aI0
aI0
aa(lp405
I0
aI0
aI0
aa(lp406
I0
aI0
aI0
aa(lp407
I7
aI0
aI0
aa(lp408
I0
aI0
aI0
aa(lp409
I1
aI0
aI0
aa(lp410
I6
aI1
aI0
aa(lp411
I0
aI0
aI0
aa(lp412
I20
aI5
aI0
aa(lp413
I5
aI0
aI0
aa(lp414
I0
aI0
aI0
aa(lp415
I3
aI0
aI0
aa(lp416
I7
aI1
aI0
aa(lp417
I3
aI1
aI0
aa(lp418
I6
aI0
aI0
aa(lp419
I7
aI0
aI0
aa(lp420
I0
aI0
aI0
aa(lp421
I6
aI1
aI0
aa.